; Function Attrs: mustprogress uwtable
define dso_local void @_ZN3net16QuicCryptoStream15OnDataAvailableEv(ptr noundef nonnull align 8 dereferenceable(1048) %this) unnamed_addr #0 align 2 {
entry:
  %iov = alloca %struct.iovec, align 8
  %data = alloca %"class.base::BasicStringPiece", align 8
  %sequencer_.i = getelementptr inbounds i8, ptr %this, i64 40
  %call22 = call noundef i32 @_ZNK3net19QuicStreamSequencer18GetReadableRegionsEP5iovecm(ptr noundef nonnull align 8 dereferenceable(169) %sequencer_.i, ptr noundef nonnull %iov, i64 noundef 1)
  %cmp.not3 = icmp eq i32 %call22, 1
  br i1 %cmp.not3, label %if.end.lr.ph, label %while.end

if.end.lr.ph:                                     ; preds = %entry
  %iov_len = getelementptr inbounds i8, ptr %iov, i64 8
  %crypto_framer_ = getelementptr inbounds i8, ptr %this, i64 840
  %agg.tmp.sroa.2.0.data.sroa_idx = getelementptr inbounds i8, ptr %data, i64 8
  br label %if.end

if.end:                                           ; preds = %if.end.lr.ph, %if.end9
  %0 = load ptr, ptr %iov, align 8
  %1 = load i64, ptr %iov_len, align 8
  call void @_ZN4base16BasicStringPieceINSt7__cxx1112basic_stringIcSt11char_traitsIcESaIcEEEEC1EPKcm(ptr noundef nonnull align 8 dereferenceable(16) %data, ptr noundef %0, i64 noundef %1)
  %agg.tmp.sroa.0.0.copyload = load ptr, ptr %data, align 8
  %agg.tmp.sroa.2.0.copyload = load i64, ptr %agg.tmp.sroa.2.0.data.sroa_idx, align 8
  %call3 = call noundef zeroext i1 @_ZN3net12CryptoFramer12ProcessInputEN4base16BasicStringPieceINSt7__cxx1112basic_stringIcSt11char_traitsIcESaIcEEEEE(ptr noundef nonnull align 8 dereferenceable(208) %crypto_framer_, ptr %agg.tmp.sroa.0.0.copyload, i64 %agg.tmp.sroa.2.0.copyload)
  br i1 %call3, label %if.end9, label %if.then4

if.then4:                                         ; preds = %if.end
  %error_.i = getelementptr inbounds i8, ptr %this, i64 856
  %2 = load i32, ptr %error_.i, align 8
  %error_detail_.i = getelementptr inbounds i8, ptr %this, i64 976
  %vtable = load ptr, ptr %this, align 8
  %vfn = getelementptr inbounds i8, ptr %vtable, i64 72
  %3 = load ptr, ptr %vfn, align 8
  call void %3(ptr noundef nonnull align 8 dereferenceable(377) %this, i32 noundef %2, ptr noundef nonnull align 8 dereferenceable(32) %error_detail_.i)
  br label %while.end

if.end9:                                          ; preds = %if.end
  %4 = load i64, ptr %iov_len, align 8
  call void @_ZN3net19QuicStreamSequencer12MarkConsumedEm(ptr noundef nonnull align 8 dereferenceable(169) %sequencer_.i, i64 noundef %4)
  %call2 = call noundef i32 @_ZNK3net19QuicStreamSequencer18GetReadableRegionsEP5iovecm(ptr noundef nonnull align 8 dereferenceable(169) %sequencer_.i, ptr noundef nonnull %iov, i64 noundef 1)
  %cmp.not = icmp eq i32 %call2, 1
  br i1 %cmp.not, label %if.end, label %while.end, !llvm.loop !5

while.end:                                        ; preds = %if.end9, %entry, %if.then4
  ret void
}